0000000000000960 P _ZdlPv
0000000000000970 P __cxa_rethrow
0000000000000980 P __libc_start_main
0000000000000990 P __cxa_atexit
00000000000009a0 P __cxa_pure_virtual
00000000000009b0 P __stack_chk_fail
00000000000009c0 P mcount
00000000000009d0 P __monstartup
00000000000009e0 P __cxa_end_catch
00000000000009f0 P __cxa_begin_catch
0000000000000a00 P __gxx_personality_v0
0000000000000a10 P _Znwm
0000000000000a20 P _Unwind_Resume
0000000000000a30 P __dynsym_end
0000000000000a30 T _start
0000000000000a60 T __gmon_start__
0000000000000b76 t _ZL18__gthread_active_pv
0000000000000b91 t _ZN9__gnu_cxxL18__exchange_and_addEPVii
0000000000000bb4 t _ZN9__gnu_cxxL25__exchange_and_add_singleEPii
0000000000000be7 t _ZN9__gnu_cxxL27__exchange_and_add_dispatchEPii
0000000000000c2f T main
0000000000000c8e w _ZNSt12__shared_ptrIiLN9__gnu_cxx12_Lock_policyE2EED2Ev
0000000000000cb2 w _ZNSt10shared_ptrIiED2Ev
0000000000000cd2 w _ZNSt10shared_ptrIiEC2IiEEPT_
0000000000000cfe w _ZNSt14__shared_countILN9__gnu_cxx12_Lock_policyE2EED2Ev
0000000000000d2e w _ZNSt12__shared_ptrIiLN9__gnu_cxx12_Lock_policyE2EEC1IiEEPT_
0000000000000d88 w _ZNSt16_Sp_counted_baseILN9__gnu_cxx12_Lock_policyE2EE10_M_releaseEv
0000000000000e08 w _ZNSt14__shared_countILN9__gnu_cxx12_Lock_policyE2EEC2IPiEET_
0000000000000e81 w _ZSt32__enable_shared_from_this_helperILN9__gnu_cxx12_Lock_policyE2EEvRKSt14__shared_countIXT_EEz
0000000000000ee2 w _ZNSt16_Sp_counted_baseILN9__gnu_cxx12_Lock_policyE2EE10_M_destroyEv
0000000000000f14 w _ZNSt15_Sp_counted_ptrIPiLN9__gnu_cxx12_Lock_policyE2EEC1ES0_
0000000000000f50 w _ZNSt16_Sp_counted_baseILN9__gnu_cxx12_Lock_policyE2EED1Ev
0000000000000f84 w _ZNSt16_Sp_counted_baseILN9__gnu_cxx12_Lock_policyE2EED0Ev
0000000000000fb0 w _ZNSt11_Mutex_baseILN9__gnu_cxx12_Lock_policyE2EEC2Ev
0000000000000fc4 w _ZNSt16_Sp_counted_baseILN9__gnu_cxx12_Lock_policyE2EEC2Ev
0000000000001006 w _ZNSt15_Sp_counted_ptrIPiLN9__gnu_cxx12_Lock_policyE2EED2Ev
0000000000001046 w _ZNSt15_Sp_counted_ptrIPiLN9__gnu_cxx12_Lock_policyE2EED0Ev
0000000000001072 w _ZNSt15_Sp_counted_ptrIPiLN9__gnu_cxx12_Lock_policyE2EE10_M_disposeEv
0000000000001096 w _ZNSt15_Sp_counted_ptrIPiLN9__gnu_cxx12_Lock_policyE2EE10_M_destroyEv
00000000000010be w _ZNSt15_Sp_counted_ptrIPiLN9__gnu_cxx12_Lock_policyE2EE14_M_get_deleterERKSt9type_info
00000000000010e0 T __libc_csu_init
0000000000001150 T __libc_csu_fini
0000000000001160 T atexit
0000000000001189 T __sym_end
